; Function Attrs: mustprogress uwtable
define void @_ZN8QuantLib33LongstaffSchwartzExerciseStrategy5resetEv(ptr nocapture noundef nonnull align 8 dereferenceable(312) %this) unnamed_addr #0 align 2 {
entry:
  %exercise_ = getelementptr inbounds nuw i8, ptr %this, i64 40
  %0 = load ptr, ptr %exercise_, align 8, !tbaa !10
  %vtable = load ptr, ptr %0, align 8, !tbaa !3
  %vfn = getelementptr inbounds i8, ptr %vtable, i64 48
  %1 = load ptr, ptr %vfn, align 8
  tail call void %1(ptr noundef nonnull align 8 dereferenceable(8) %0)
  %control_ = getelementptr inbounds nuw i8, ptr %this, i64 48
  %2 = load ptr, ptr %control_, align 8, !tbaa !10
  %vtable3 = load ptr, ptr %2, align 8, !tbaa !3
  %vfn4 = getelementptr inbounds i8, ptr %vtable3, i64 48
  %3 = load ptr, ptr %vfn4, align 8
  tail call void %3(ptr noundef nonnull align 8 dereferenceable(8) %2)
  %basisSystem_ = getelementptr inbounds nuw i8, ptr %this, i64 8
  %4 = load ptr, ptr %basisSystem_, align 8, !tbaa !10
  %vtable6 = load ptr, ptr %4, align 8, !tbaa !3
  %vfn7 = getelementptr inbounds i8, ptr %vtable6, i64 48
  %5 = load ptr, ptr %vfn7, align 8
  tail call void %5(ptr noundef nonnull align 8 dereferenceable(8) %4)
  %currentIndex_ = getelementptr inbounds nuw i8, ptr %this, i64 80
  store i64 0, ptr %currentIndex_, align 8, !tbaa !57
  %newPrincipal_ = getelementptr inbounds nuw i8, ptr %this, i64 96
  store double 1.000000e+00, ptr %newPrincipal_, align 8, !tbaa !84
  %principalInNumerairePortfolio_ = getelementptr inbounds nuw i8, ptr %this, i64 88
  store double 1.000000e+00, ptr %principalInNumerairePortfolio_, align 8, !tbaa !85
  ret void
}